; Function Attrs: nounwind uwtable
define internal range(i32 0, 2) i32 @x963kdf_set_ctx_params(ptr noundef %0, ptr noundef %1) #0 {
  %3 = icmp eq ptr %1, null
  br i1 %3, label %ossl_param_is_empty.exit.thread, label %ossl_param_is_empty.exit

ossl_param_is_empty.exit:                         ; preds = %2
  %4 = load ptr, ptr %1, align 8, !tbaa !24
  %.not = icmp eq ptr %4, null
  br i1 %.not, label %ossl_param_is_empty.exit.thread, label %5

5:                                                ; preds = %ossl_param_is_empty.exit
  %6 = tail call fastcc i32 @sskdf_common_set_ctx_params(ptr noundef %0, ptr noundef nonnull %1)
  br label %ossl_param_is_empty.exit.thread

ossl_param_is_empty.exit.thread:                  ; preds = %2, %5, %ossl_param_is_empty.exit
  %.0 = phi i32 [ 1, %ossl_param_is_empty.exit ], [ %6, %5 ], [ 1, %2 ]
  ret i32 %.0
}